target datalayout = "e-m:e-p270:32:32-p271:32:32-p272:64:64-i64:64-i128:128-f80:128-n8:16:32:64-S128"
target triple = "x86_64-pc-linux-gnu"

%struct.XXH128_hash_t = type { i64, i64 }

; Function Attrs: mustprogress nounwind willreturn memory(read) uwtable
define i32 @ROCKSDB_XXH128_cmp(ptr noundef captures(none) %0, ptr noundef captures(none) %1) #1 {
  %3 = alloca i32, align 4
  %4 = alloca ptr, align 8
  %5 = alloca ptr, align 8
  %6 = alloca %struct.XXH128_hash_t, align 8
  %7 = alloca %struct.XXH128_hash_t, align 8
  %8 = alloca i32, align 4
  %9 = alloca i32, align 4
  store ptr %0, ptr %4, align 8, !tbaa !4
  store ptr %1, ptr %5, align 8, !tbaa !4
  call void @llvm.lifetime.start.p0(i64 16, ptr %6) #22
  %10 = load ptr, ptr %4, align 8, !tbaa !4
  call void @llvm.memcpy.p0.p0.i64(ptr align 8 %6, ptr align 8 %10, i64 16, i1 false), !tbaa.struct !61
  call void @llvm.lifetime.start.p0(i64 16, ptr %7) #22
  %11 = load ptr, ptr %5, align 8, !tbaa !4
  call void @llvm.memcpy.p0.p0.i64(ptr align 8 %7, ptr align 8 %11, i64 16, i1 false), !tbaa.struct !61
  call void @llvm.lifetime.start.p0(i64 4, ptr %8) #22
  %12 = getelementptr inbounds nuw %struct.XXH128_hash_t, ptr %6, i32 0, i32 1
  %13 = load i64, ptr %12, align 8, !tbaa !60
  %14 = getelementptr inbounds nuw %struct.XXH128_hash_t, ptr %7, i32 0, i32 1
  %15 = load i64, ptr %14, align 8, !tbaa !60
  %16 = icmp ugt i64 %13, %15
  %17 = zext i1 %16 to i32
  %18 = getelementptr inbounds nuw %struct.XXH128_hash_t, ptr %7, i32 0, i32 1
  %19 = load i64, ptr %18, align 8, !tbaa !60
  %20 = getelementptr inbounds nuw %struct.XXH128_hash_t, ptr %6, i32 0, i32 1
  %21 = load i64, ptr %20, align 8, !tbaa !60
  %22 = icmp ugt i64 %19, %21
  %23 = zext i1 %22 to i32
  %24 = sub nsw i32 %17, %23
  store i32 %24, ptr %8, align 4, !tbaa !10
  %25 = load i32, ptr %8, align 4, !tbaa !10
  %26 = icmp ne i32 %25, 0
  br i1 %26, label %27, label %29

27:                                               ; preds = %2
  %28 = load i32, ptr %8, align 4, !tbaa !10
  store i32 %28, ptr %3, align 4
  store i32 1, ptr %9, align 4
  br label %43

29:                                               ; preds = %2
  %30 = getelementptr inbounds nuw %struct.XXH128_hash_t, ptr %6, i32 0, i32 0
  %31 = load i64, ptr %30, align 8, !tbaa !58
  %32 = getelementptr inbounds nuw %struct.XXH128_hash_t, ptr %7, i32 0, i32 0
  %33 = load i64, ptr %32, align 8, !tbaa !58
  %34 = icmp ugt i64 %31, %33
  %35 = zext i1 %34 to i32
  %36 = getelementptr inbounds nuw %struct.XXH128_hash_t, ptr %7, i32 0, i32 0
  %37 = load i64, ptr %36, align 8, !tbaa !58
  %38 = getelementptr inbounds nuw %struct.XXH128_hash_t, ptr %6, i32 0, i32 0
  %39 = load i64, ptr %38, align 8, !tbaa !58
  %40 = icmp ugt i64 %37, %39
  %41 = zext i1 %40 to i32
  %42 = sub nsw i32 %35, %41
  store i32 %42, ptr %3, align 4
  store i32 1, ptr %9, align 4
  br label %43

43:                                               ; preds = %29, %27
  call void @llvm.lifetime.end.p0(i64 4, ptr %8) #22
  call void @llvm.lifetime.end.p0(i64 16, ptr %7) #22
  call void @llvm.lifetime.end.p0(i64 16, ptr %6) #22
  %44 = load i32, ptr %3, align 4
  ret i32 %44
}