; Function Attrs: mustprogress nofree norecurse nosync nounwind willreturn memory(argmem: read) uwtable
define range(i32 -1, 2) i32 @ROCKSDB_XXH128_cmp(ptr noundef readonly captures(none) %0, ptr noundef readonly captures(none) %1) local_unnamed_addr #9 {
  %.sroa.56.0..sroa_idx = getelementptr inbounds nuw i8, ptr %0, i64 8
  %.sroa.56.0.copyload = load i64, ptr %.sroa.56.0..sroa_idx, align 8, !tbaa !19
  %.sroa.5.0..sroa_idx = getelementptr inbounds nuw i8, ptr %1, i64 8
  %.sroa.5.0.copyload = load i64, ptr %.sroa.5.0..sroa_idx, align 8, !tbaa !19
  %.not = icmp eq i64 %.sroa.56.0.copyload, %.sroa.5.0.copyload
  br i1 %.not, label %5, label %3

3:                                                ; preds = %2
  %4 = tail call i32 @llvm.ucmp.i32.i64(i64 %.sroa.56.0.copyload, i64 %.sroa.5.0.copyload)
  br label %7

5:                                                ; preds = %2
  %.sroa.0.0.copyload = load i64, ptr %1, align 8, !tbaa !19
  %.sroa.04.0.copyload = load i64, ptr %0, align 8, !tbaa !19
  %6 = tail call i32 @llvm.ucmp.i32.i64(i64 %.sroa.04.0.copyload, i64 %.sroa.0.0.copyload)
  br label %7

7:                                                ; preds = %5, %3
  %.0 = phi i32 [ %4, %3 ], [ %6, %5 ]
  ret i32 %.0
}